target datalayout = "e-m:e-p270:32:32-p271:32:32-p272:64:64-i64:64-i128:128-f80:128-n8:16:32:64-S128"
target triple = "x86_64-pc-linux-gnu"

%struct.pmix_list_t = type { %struct.pmix_object_t, %struct.pmix_list_item_t, i64 }
%struct.pmix_object_t = type { %union.pthread_mutex_t, ptr, i32, %struct.pmix_tma }
%union.pthread_mutex_t = type { %struct.__pthread_mutex_s }
%struct.__pthread_mutex_s = type { i32, i32, i32, i32, i32, i16, i16, %struct.__pthread_internal_list }
%struct.__pthread_internal_list = type { ptr, ptr }
%struct.pmix_tma = type { ptr, ptr, ptr, ptr, ptr, ptr, ptr, ptr }
%struct.pmix_list_item_t = type { %struct.pmix_object_t, ptr, ptr, i32 }
%struct.prte_process_info_t = type { %struct.pmix_proc, %struct.pmix_proc, ptr, %struct.pmix_proc, i32, i32, i32, ptr, ptr, i32, i8, ptr, i16, ptr, ptr, i8, ptr, i8 }
%struct.pmix_proc = type { [256 x i8], i32 }
%struct.prte_job_t = type { %struct.pmix_list_item_t, i32, ptr, ptr, [256 x i8], ptr, i32, i32, ptr, ptr, i32, i32, i32, i32, ptr, ptr, ptr, i32, i32, i32, i32, i32, i32, i32, %struct.pmix_proc, i32, i16, %struct.pmix_list_t, %struct.pmix_data_buffer, %struct.pmix_list_t, [256 x i8], i32, ptr, %struct.pmix_cli_result_t }
%struct.pmix_data_buffer = type { ptr, ptr, ptr, i64, i64 }
%struct.pmix_cli_result_t = type { %struct.pmix_object_t, %struct.pmix_list_t, ptr }
%struct.flock = type { i16, i16, i64, i64, i32 }

@prte_process_info = external global %struct.prte_process_info_t, align 8
@.str.46 = private unnamed_addr constant [17 x i8] c"/proc/self/fd/%d\00", align 1
@.str.47 = private unnamed_addr constant [8 x i8] c"cloexec\00", align 1
@.str.48 = private unnamed_addr constant [7 x i8] c"append\00", align 1
@.str.49 = private unnamed_addr constant [9 x i8] c"nonblock\00", align 1
@.str.50 = private unnamed_addr constant [7 x i8] c"rdonly\00", align 1
@.str.51 = private unnamed_addr constant [7 x i8] c"wronly\00", align 1
@.str.52 = private unnamed_addr constant [5 x i8] c"rdwr\00", align 1
@.str.53 = private unnamed_addr constant [7 x i8] c"wrlock\00", align 1
@.str.54 = private unnamed_addr constant [7 x i8] c"rdlock\00", align 1
@.str.55 = private unnamed_addr constant [16 x i8] c"    %d\09(%s)\09%s\0A\00", align 1
@.str.56 = private unnamed_addr constant [18 x i8] c"%s    %d\09(%s)\09%s\0A\00", align 1
@.str.57 = private unnamed_addr constant [55 x i8] c"%s: %d open file descriptors after job %d completed\0A%s\00", align 1
@.str.58 = private unnamed_addr constant [3 x i8] c"%s\00", align 1

; Function Attrs: alwaysinline nounwind uwtable
define internal i32 @prte_util_get_local_jobid(ptr noundef %0) #5 {
  %2 = alloca i32, align 4
  %3 = alloca ptr, align 8
  %4 = alloca ptr, align 8
  %5 = alloca i32, align 4
  %6 = alloca i32, align 4
  store ptr %0, ptr %3, align 8, !tbaa !144
  call void @llvm.lifetime.start.p0(i64 8, ptr %4) #13
  call void @llvm.lifetime.start.p0(i64 4, ptr %5) #13
  %7 = load ptr, ptr %3, align 8, !tbaa !144
  %8 = call ptr @strrchr(ptr noundef %7, i32 noundef 64) #16
  store ptr %8, ptr %4, align 8, !tbaa !144
  %9 = load ptr, ptr %4, align 8, !tbaa !144
  %10 = icmp eq ptr null, %9
  br i1 %10, label %11, label %12

11:                                               ; preds = %1
  store i32 -1, ptr %2, align 4
  store i32 1, ptr %6, align 4
  br label %19

12:                                               ; preds = %1
  %13 = load ptr, ptr %4, align 8, !tbaa !144
  %14 = getelementptr inbounds nuw i8, ptr %13, i32 1
  store ptr %14, ptr %4, align 8, !tbaa !144
  %15 = load ptr, ptr %4, align 8, !tbaa !144
  %16 = call i64 @strtoul(ptr noundef %15, ptr noundef null, i32 noundef 10) #13
  %17 = trunc i64 %16 to i32
  store i32 %17, ptr %5, align 4, !tbaa !7
  %18 = load i32, ptr %5, align 4, !tbaa !7
  store i32 %18, ptr %2, align 4
  store i32 1, ptr %6, align 4
  br label %19

19:                                               ; preds = %12, %11
  call void @llvm.lifetime.end.p0(i64 4, ptr %5) #13
  call void @llvm.lifetime.end.p0(i64 8, ptr %4) #13
  %20 = load i32, ptr %2, align 4
  ret i32 %20
}

; Function Attrs: nounwind uwtable
define void @prte_state_base_check_fds(ptr noundef %0) #0 {
  %2 = alloca ptr, align 8
  %3 = alloca i32, align 4
  %4 = alloca i32, align 4
  %5 = alloca i32, align 4
  %6 = alloca i32, align 4
  %7 = alloca [1024 x i8], align 16
  %8 = alloca [256 x i8], align 16
  %9 = alloca ptr, align 8
  %10 = alloca ptr, align 8
  %11 = alloca ptr, align 8
  %12 = alloca ptr, align 8
  %13 = alloca i64, align 8
  %14 = alloca %struct.flock, align 8
  %15 = alloca i8, align 1
  %16 = alloca i32, align 4
  store ptr %0, ptr %2, align 8, !tbaa !3
  call void @llvm.lifetime.start.p0(i64 4, ptr %3) #13
  call void @llvm.lifetime.start.p0(i64 4, ptr %4) #13
  call void @llvm.lifetime.start.p0(i64 4, ptr %5) #13
  call void @llvm.lifetime.start.p0(i64 4, ptr %6) #13
  call void @llvm.lifetime.start.p0(i64 1024, ptr %7) #13
  call void @llvm.lifetime.start.p0(i64 256, ptr %8) #13
  call void @llvm.lifetime.start.p0(i64 8, ptr %9) #13
  store ptr null, ptr %9, align 8, !tbaa !151
  call void @llvm.lifetime.start.p0(i64 8, ptr %10) #13
  call void @llvm.lifetime.start.p0(i64 8, ptr %11) #13
  call void @llvm.lifetime.start.p0(i64 8, ptr %12) #13
  call void @llvm.lifetime.start.p0(i64 8, ptr %13) #13
  call void @llvm.lifetime.start.p0(i64 32, ptr %14) #13
  call void @llvm.lifetime.start.p0(i64 1, ptr %15) #13
  call void @llvm.lifetime.start.p0(i64 4, ptr %16) #13
  store i32 0, ptr %16, align 4, !tbaa !7
  %17 = call i32 @getdtablesize() #13
  store i32 %17, ptr %3, align 4, !tbaa !7
  store ptr null, ptr %11, align 8, !tbaa !144
  store i32 0, ptr %4, align 4, !tbaa !7
  br label %18

18:                                               ; preds = %133, %1
  %19 = load i32, ptr %4, align 4, !tbaa !7
  %20 = load i32, ptr %3, align 4, !tbaa !7
  %21 = icmp slt i32 %19, %20
  br i1 %21, label %22, label %136

22:                                               ; preds = %18
  %23 = load i32, ptr %4, align 4, !tbaa !7
  %24 = call i32 (i32, i32, ...) @fcntl(i32 noundef %23, i32 noundef 1)
  store i32 %24, ptr %5, align 4, !tbaa !7
  %25 = load i32, ptr %5, align 4, !tbaa !7
  %26 = icmp eq i32 -1, %25
  br i1 %26, label %27, label %28

27:                                               ; preds = %22
  br label %133

28:                                               ; preds = %22
  %29 = load i32, ptr %4, align 4, !tbaa !7
  %30 = call i32 (i32, i32, ...) @fcntl(i32 noundef %29, i32 noundef 3)
  store i32 %30, ptr %6, align 4, !tbaa !7
  %31 = load i32, ptr %6, align 4, !tbaa !7
  %32 = icmp eq i32 -1, %31
  br i1 %32, label %33, label %34

33:                                               ; preds = %28
  br label %133

34:                                               ; preds = %28
  %35 = getelementptr inbounds [1024 x i8], ptr %7, i64 0, i64 0
  %36 = load i32, ptr %4, align 4, !tbaa !7
  %37 = call i32 (ptr, i64, ptr, ...) @snprintf(ptr noundef %35, i64 noundef 1024, ptr noundef @.str.46, i32 noundef %36) #13
  %38 = getelementptr inbounds [256 x i8], ptr %8, i64 0, i64 0
  call void @llvm.memset.p0.i64(ptr align 16 %38, i8 0, i64 256, i1 false)
  %39 = getelementptr inbounds [1024 x i8], ptr %7, i64 0, i64 0
  %40 = getelementptr inbounds [256 x i8], ptr %8, i64 0, i64 0
  %41 = call i64 @readlink(ptr noundef %39, ptr noundef %40, i64 noundef 256) #13
  store i64 %41, ptr %13, align 8, !tbaa !152
  %42 = load i64, ptr %13, align 8, !tbaa !152
  %43 = icmp eq i64 -1, %42
  br i1 %43, label %44, label %45

44:                                               ; preds = %34
  br label %133

45:                                               ; preds = %34
  %46 = getelementptr inbounds nuw %struct.flock, ptr %14, i32 0, i32 0
  store i16 1, ptr %46, align 8, !tbaa !153
  %47 = getelementptr inbounds nuw %struct.flock, ptr %14, i32 0, i32 1
  store i16 0, ptr %47, align 2, !tbaa !155
  %48 = getelementptr inbounds nuw %struct.flock, ptr %14, i32 0, i32 2
  store i64 0, ptr %48, align 8, !tbaa !156
  %49 = getelementptr inbounds nuw %struct.flock, ptr %14, i32 0, i32 3
  store i64 0, ptr %49, align 8, !tbaa !157
  %50 = load i32, ptr %4, align 4, !tbaa !7
  %51 = call i32 (i32, i32, ...) @fcntl(i32 noundef %50, i32 noundef 5, ptr noundef %14)
  %52 = icmp eq i32 -1, %51
  br i1 %52, label %53, label %54

53:                                               ; preds = %45
  store i8 0, ptr %15, align 1, !tbaa !90
  br label %55

54:                                               ; preds = %45
  store i8 1, ptr %15, align 1, !tbaa !90
  br label %55

55:                                               ; preds = %54, %53
  %56 = load i32, ptr %5, align 4, !tbaa !7
  %57 = and i32 %56, 1
  %58 = icmp ne i32 %57, 0
  br i1 %58, label %59, label %61

59:                                               ; preds = %55
  %60 = call i32 @PMIx_Argv_append_nosize(ptr noundef %9, ptr noundef @.str.47)
  br label %61

61:                                               ; preds = %59, %55
  %62 = load i32, ptr %6, align 4, !tbaa !7
  %63 = and i32 %62, 1024
  %64 = icmp ne i32 %63, 0
  br i1 %64, label %65, label %67

65:                                               ; preds = %61
  %66 = call i32 @PMIx_Argv_append_nosize(ptr noundef %9, ptr noundef @.str.48)
  br label %67

67:                                               ; preds = %65, %61
  %68 = load i32, ptr %6, align 4, !tbaa !7
  %69 = and i32 %68, 2048
  %70 = icmp ne i32 %69, 0
  br i1 %70, label %71, label %73

71:                                               ; preds = %67
  %72 = call i32 @PMIx_Argv_append_nosize(ptr noundef %9, ptr noundef @.str.49)
  br label %73

73:                                               ; preds = %71, %67
  %74 = load i32, ptr %6, align 4, !tbaa !7
  %75 = and i32 %74, 3
  %76 = icmp eq i32 0, %75
  br i1 %76, label %77, label %79

77:                                               ; preds = %73
  %78 = call i32 @PMIx_Argv_append_nosize(ptr noundef %9, ptr noundef @.str.50)
  br label %88

79:                                               ; preds = %73
  %80 = load i32, ptr %6, align 4, !tbaa !7
  %81 = and i32 %80, 3
  %82 = icmp eq i32 1, %81
  br i1 %82, label %83, label %85

83:                                               ; preds = %79
  %84 = call i32 @PMIx_Argv_append_nosize(ptr noundef %9, ptr noundef @.str.51)
  br label %87

85:                                               ; preds = %79
  %86 = call i32 @PMIx_Argv_append_nosize(ptr noundef %9, ptr noundef @.str.52)
  br label %87

87:                                               ; preds = %85, %83
  br label %88

88:                                               ; preds = %87, %77
  %89 = load i8, ptr %15, align 1, !tbaa !90, !range !91, !noundef !92
  %90 = trunc i8 %89 to i1
  br i1 %90, label %91, label %106

91:                                               ; preds = %88
  %92 = getelementptr inbounds nuw %struct.flock, ptr %14, i32 0, i32 0
  %93 = load i16, ptr %92, align 8, !tbaa !153
  %94 = sext i16 %93 to i32
  %95 = icmp ne i32 2, %94
  br i1 %95, label %96, label %106

96:                                               ; preds = %91
  %97 = getelementptr inbounds nuw %struct.flock, ptr %14, i32 0, i32 0
  %98 = load i16, ptr %97, align 8, !tbaa !153
  %99 = sext i16 %98 to i32
  %100 = icmp eq i32 1, %99
  br i1 %100, label %101, label %103

101:                                              ; preds = %96
  %102 = call i32 @PMIx_Argv_append_nosize(ptr noundef %9, ptr noundef @.str.53)
  br label %105

103:                                              ; preds = %96
  %104 = call i32 @PMIx_Argv_append_nosize(ptr noundef %9, ptr noundef @.str.54)
  br label %105

105:                                              ; preds = %103, %101
  br label %106

106:                                              ; preds = %105, %91, %88
  %107 = load ptr, ptr %9, align 8, !tbaa !151
  %108 = icmp ne ptr null, %107
  br i1 %108, label %109, label %130

109:                                              ; preds = %106
  %110 = load ptr, ptr %9, align 8, !tbaa !151
  %111 = call ptr @PMIx_Argv_join(ptr noundef %110, i32 noundef 32)
  store ptr %111, ptr %10, align 8, !tbaa !144
  %112 = load ptr, ptr %9, align 8, !tbaa !151
  call void @PMIx_Argv_free(ptr noundef %112)
  store ptr null, ptr %9, align 8, !tbaa !151
  %113 = load ptr, ptr %11, align 8, !tbaa !144
  %114 = icmp eq ptr null, %113
  br i1 %114, label %115, label %120

115:                                              ; preds = %109
  %116 = load i32, ptr %4, align 4, !tbaa !7
  %117 = getelementptr inbounds [256 x i8], ptr %8, i64 0, i64 0
  %118 = load ptr, ptr %10, align 8, !tbaa !144
  %119 = call i32 (ptr, ptr, ...) @pmix_asprintf(ptr noundef %11, ptr noundef @.str.55, i32 noundef %116, ptr noundef %117, ptr noundef %118)
  br label %128

120:                                              ; preds = %109
  %121 = load ptr, ptr %11, align 8, !tbaa !144
  %122 = load i32, ptr %4, align 4, !tbaa !7
  %123 = getelementptr inbounds [256 x i8], ptr %8, i64 0, i64 0
  %124 = load ptr, ptr %10, align 8, !tbaa !144
  %125 = call i32 (ptr, ptr, ...) @pmix_asprintf(ptr noundef %12, ptr noundef @.str.56, ptr noundef %121, i32 noundef %122, ptr noundef %123, ptr noundef %124)
  %126 = load ptr, ptr %11, align 8, !tbaa !144
  call void @free(ptr noundef %126) #13
  %127 = load ptr, ptr %12, align 8, !tbaa !144
  store ptr %127, ptr %11, align 8, !tbaa !144
  br label %128

128:                                              ; preds = %120, %115
  %129 = load ptr, ptr %10, align 8, !tbaa !144
  call void @free(ptr noundef %129) #13
  br label %130

130:                                              ; preds = %128, %106
  %131 = load i32, ptr %16, align 4, !tbaa !7
  %132 = add nsw i32 %131, 1
  store i32 %132, ptr %16, align 4, !tbaa !7
  br label %133

133:                                              ; preds = %130, %44, %33, %27
  %134 = load i32, ptr %4, align 4, !tbaa !7
  %135 = add nsw i32 %134, 1
  store i32 %135, ptr %4, align 4, !tbaa !7
  br label %18, !llvm.loop !158

136:                                              ; preds = %18
  %137 = call ptr @prte_util_print_name_args(ptr noundef @prte_process_info)
  %138 = load i32, ptr %16, align 4, !tbaa !7
  %139 = load ptr, ptr %2, align 8, !tbaa !3
  %140 = getelementptr inbounds nuw %struct.prte_job_t, ptr %139, i32 0, i32 4
  %141 = getelementptr inbounds [256 x i8], ptr %140, i64 0, i64 0
  %142 = call i32 @prte_util_get_local_jobid(ptr noundef %141)
  %143 = load ptr, ptr %11, align 8, !tbaa !144
  %144 = call i32 (ptr, ptr, ...) @pmix_asprintf(ptr noundef %12, ptr noundef @.str.57, ptr noundef %137, i32 noundef %138, i32 noundef %142, ptr noundef %143)
  %145 = load ptr, ptr %12, align 8, !tbaa !144
  call void (i32, ptr, ...) @pmix_output(i32 noundef 0, ptr noundef @.str.58, ptr noundef %145)
  %146 = load ptr, ptr %11, align 8, !tbaa !144
  call void @free(ptr noundef %146) #13
  %147 = load ptr, ptr %12, align 8, !tbaa !144
  call void @free(ptr noundef %147) #13
  call void @llvm.lifetime.end.p0(i64 4, ptr %16) #13
  call void @llvm.lifetime.end.p0(i64 1, ptr %15) #13
  call void @llvm.lifetime.end.p0(i64 32, ptr %14) #13
  call void @llvm.lifetime.end.p0(i64 8, ptr %13) #13
  call void @llvm.lifetime.end.p0(i64 8, ptr %12) #13
  call void @llvm.lifetime.end.p0(i64 8, ptr %11) #13
  call void @llvm.lifetime.end.p0(i64 8, ptr %10) #13
  call void @llvm.lifetime.end.p0(i64 8, ptr %9) #13
  call void @llvm.lifetime.end.p0(i64 256, ptr %8) #13
  call void @llvm.lifetime.end.p0(i64 1024, ptr %7) #13
  call void @llvm.lifetime.end.p0(i64 4, ptr %6) #13
  call void @llvm.lifetime.end.p0(i64 4, ptr %5) #13
  call void @llvm.lifetime.end.p0(i64 4, ptr %4) #13
  call void @llvm.lifetime.end.p0(i64 4, ptr %3) #13
  ret void
}