; Function Attrs: nounwind uwtable
define void @prte_state_base_check_fds(ptr noundef readonly %0) local_unnamed_addr #0 {
  %2 = alloca [1024 x i8], align 16
  %3 = alloca [256 x i8], align 16
  %4 = alloca ptr, align 8
  %5 = alloca ptr, align 8
  %6 = alloca ptr, align 8
  %7 = alloca %struct.flock, align 8
  call void @llvm.lifetime.start.p0(i64 1024, ptr nonnull %2) #14
  call void @llvm.lifetime.start.p0(i64 256, ptr nonnull %3) #14
  call void @llvm.lifetime.start.p0(i64 8, ptr nonnull %4) #14
  store ptr null, ptr %4, align 8, !tbaa !125
  call void @llvm.lifetime.start.p0(i64 8, ptr nonnull %5) #14
  call void @llvm.lifetime.start.p0(i64 8, ptr nonnull %6) #14
  call void @llvm.lifetime.start.p0(i64 32, ptr nonnull %7) #14
  %8 = tail call i32 @getdtablesize() #14
  store ptr null, ptr %5, align 8, !tbaa !124
  %9 = icmp sgt i32 %8, 0
  br i1 %9, label %.lr.ph, label %._crit_edge

.lr.ph:                                           ; preds = %1
  %10 = getelementptr inbounds nuw i8, ptr %7, i64 2
  %11 = getelementptr inbounds nuw i8, ptr %7, i64 8
  br label %12

12:                                               ; preds = %.lr.ph, %59
  %.038 = phi i32 [ 0, %.lr.ph ], [ %.1, %59 ]
  %.02737 = phi i32 [ 0, %.lr.ph ], [ %60, %59 ]
  %13 = call i32 (i32, i32, ...) @fcntl(i32 noundef %.02737, i32 noundef 1) #14
  %14 = icmp eq i32 %13, -1
  br i1 %14, label %59, label %15

15:                                               ; preds = %12
  %16 = call i32 (i32, i32, ...) @fcntl(i32 noundef %.02737, i32 noundef 3) #14
  %17 = icmp eq i32 %16, -1
  br i1 %17, label %59, label %18

18:                                               ; preds = %15
  %19 = call i32 (ptr, i64, ptr, ...) @snprintf(ptr noundef nonnull dereferenceable(1) %2, i64 noundef 1024, ptr noundef nonnull @.str.46, i32 noundef %.02737) #14
  call void @llvm.memset.p0.i64(ptr noundef nonnull align 16 dereferenceable(256) %3, i8 0, i64 256, i1 false)
  %20 = call i64 @readlink(ptr noundef nonnull %2, ptr noundef nonnull %3, i64 noundef 256) #14
  %21 = icmp eq i64 %20, -1
  br i1 %21, label %59, label %22

22:                                               ; preds = %18
  store i16 1, ptr %7, align 8, !tbaa !126
  store i16 0, ptr %10, align 2, !tbaa !128
  call void @llvm.memset.p0.i64(ptr noundef nonnull align 8 dereferenceable(16) %11, i8 0, i64 16, i1 false)
  %23 = call i32 (i32, i32, ...) @fcntl(i32 noundef %.02737, i32 noundef 5, ptr noundef nonnull %7) #14
  %24 = icmp ne i32 %23, -1
  %25 = and i32 %13, 1
  %.not = icmp eq i32 %25, 0
  br i1 %.not, label %28, label %26

26:                                               ; preds = %22
  %27 = call i32 @PMIx_Argv_append_nosize(ptr noundef nonnull %4, ptr noundef nonnull @.str.47) #14
  br label %28

28:                                               ; preds = %26, %22
  %29 = and i32 %16, 1024
  %.not34 = icmp eq i32 %29, 0
  br i1 %.not34, label %32, label %30

30:                                               ; preds = %28
  %31 = call i32 @PMIx_Argv_append_nosize(ptr noundef nonnull %4, ptr noundef nonnull @.str.48) #14
  br label %32

32:                                               ; preds = %30, %28
  %33 = and i32 %16, 2048
  %.not35 = icmp eq i32 %33, 0
  br i1 %.not35, label %36, label %34

34:                                               ; preds = %32
  %35 = call i32 @PMIx_Argv_append_nosize(ptr noundef nonnull %4, ptr noundef nonnull @.str.49) #14
  br label %36

36:                                               ; preds = %34, %32
  %37 = and i32 %16, 3
  %switch.selectcmp = icmp eq i32 %37, 1
  %switch.select = select i1 %switch.selectcmp, ptr @.str.51, ptr @.str.52
  %switch.selectcmp39 = icmp eq i32 %37, 0
  %switch.select40 = select i1 %switch.selectcmp39, ptr @.str.50, ptr %switch.select
  %38 = call i32 @PMIx_Argv_append_nosize(ptr noundef nonnull %4, ptr noundef nonnull %switch.select40) #14
  %39 = load i16, ptr %7, align 8
  %40 = icmp ne i16 %39, 2
  %or.cond = select i1 %24, i1 %40, i1 false
  br i1 %or.cond, label %.sink.split, label %43

.sink.split:                                      ; preds = %36
  %41 = icmp eq i16 %39, 1
  %.str.53..str.54 = select i1 %41, ptr @.str.53, ptr @.str.54
  %42 = call i32 @PMIx_Argv_append_nosize(ptr noundef nonnull %4, ptr noundef nonnull %.str.53..str.54) #14
  br label %43

43:                                               ; preds = %.sink.split, %36
  %44 = load ptr, ptr %4, align 8, !tbaa !125
  %.not36 = icmp eq ptr %44, null
  br i1 %.not36, label %57, label %45

45:                                               ; preds = %43
  %46 = call ptr @PMIx_Argv_join(ptr noundef nonnull %44, i32 noundef 32) #14
  %47 = load ptr, ptr %4, align 8, !tbaa !125
  call void @PMIx_Argv_free(ptr noundef %47) #14
  store ptr null, ptr %4, align 8, !tbaa !125
  %48 = load ptr, ptr %5, align 8, !tbaa !124
  %49 = icmp eq ptr %48, null
  br i1 %49, label %50, label %52

50:                                               ; preds = %45
  %51 = call i32 (ptr, ptr, ...) @pmix_asprintf(ptr noundef nonnull %5, ptr noundef nonnull @.str.55, i32 noundef %.02737, ptr noundef nonnull %3, ptr noundef %46) #14
  br label %56

52:                                               ; preds = %45
  %53 = call i32 (ptr, ptr, ...) @pmix_asprintf(ptr noundef nonnull %6, ptr noundef nonnull @.str.56, ptr noundef nonnull %48, i32 noundef %.02737, ptr noundef nonnull %3, ptr noundef %46) #14
  %54 = load ptr, ptr %5, align 8, !tbaa !124
  call void @free(ptr noundef %54) #14
  %55 = load ptr, ptr %6, align 8, !tbaa !124
  store ptr %55, ptr %5, align 8, !tbaa !124
  br label %56

56:                                               ; preds = %52, %50
  call void @free(ptr noundef %46) #14
  br label %57

57:                                               ; preds = %56, %43
  %58 = add nsw i32 %.038, 1
  br label %59

59:                                               ; preds = %18, %15, %12, %57
  %.1 = phi i32 [ %.038, %12 ], [ %.038, %15 ], [ %.038, %18 ], [ %58, %57 ]
  %60 = add nuw nsw i32 %.02737, 1
  %exitcond.not = icmp eq i32 %60, %8
  br i1 %exitcond.not, label %._crit_edge, label %12, !llvm.loop !129

._crit_edge:                                      ; preds = %59, %1
  %.0.lcssa = phi i32 [ 0, %1 ], [ %.1, %59 ]
  %61 = call ptr @prte_util_print_name_args(ptr noundef nonnull @prte_process_info) #14
  %62 = getelementptr inbounds nuw i8, ptr %0, i64 168
  %63 = call ptr @strrchr(ptr noundef nonnull dereferenceable(1) %62, i32 noundef 64) #19
  %64 = icmp eq ptr %63, null
  br i1 %64, label %prte_util_get_local_jobid.exit, label %65

65:                                               ; preds = %._crit_edge
  %66 = getelementptr inbounds nuw i8, ptr %63, i64 1
  %67 = call i64 @strtoul(ptr noundef nonnull captures(none) %66, ptr noundef null, i32 noundef 10) #14
  %68 = trunc i64 %67 to i32
  br label %prte_util_get_local_jobid.exit

prte_util_get_local_jobid.exit:                   ; preds = %._crit_edge, %65
  %.0.i = phi i32 [ %68, %65 ], [ -1, %._crit_edge ]
  %69 = load ptr, ptr %5, align 8, !tbaa !124
  %70 = call i32 (ptr, ptr, ...) @pmix_asprintf(ptr noundef nonnull %6, ptr noundef nonnull @.str.57, ptr noundef %61, i32 noundef %.0.lcssa, i32 noundef %.0.i, ptr noundef %69) #14
  %71 = load ptr, ptr %6, align 8, !tbaa !124
  call void (i32, ptr, ...) @pmix_output(i32 noundef 0, ptr noundef nonnull @.str.58, ptr noundef %71) #14
  %72 = load ptr, ptr %5, align 8, !tbaa !124
  call void @free(ptr noundef %72) #14
  %73 = load ptr, ptr %6, align 8, !tbaa !124
  call void @free(ptr noundef %73) #14
  call void @llvm.lifetime.end.p0(i64 32, ptr nonnull %7) #14
  call void @llvm.lifetime.end.p0(i64 8, ptr nonnull %6) #14
  call void @llvm.lifetime.end.p0(i64 8, ptr nonnull %5) #14
  call void @llvm.lifetime.end.p0(i64 8, ptr nonnull %4) #14
  call void @llvm.lifetime.end.p0(i64 256, ptr nonnull %3) #14
  call void @llvm.lifetime.end.p0(i64 1024, ptr nonnull %2) #14
  ret void
}